target datalayout = "e-m:e-p270:32:32-p271:32:32-p272:64:64-i64:64-i128:128-f80:128-n8:16:32:64-S128"
target triple = "x86_64-unknown-linux-gnu"

%"struct.std::atomic" = type { %"struct.std::__atomic_base" }
%"struct.std::__atomic_base" = type { i64 }
%"class.absl::lts_20230802::Mutex" = type { %"struct.std::atomic" }
%"class.absl::lts_20230802::MutexLock" = type { ptr }
%"class.std::vector.82" = type { %"struct.std::_Vector_base.83" }
%"struct.std::_Vector_base.83" = type { %"struct.std::_Vector_base<std::shared_ptr<grpc_core::BasicMemoryQuota>, std::allocator<std::shared_ptr<grpc_core::BasicMemoryQuota>>>::_Vector_impl" }
%"struct.std::_Vector_base<std::shared_ptr<grpc_core::BasicMemoryQuota>, std::allocator<std::shared_ptr<grpc_core::BasicMemoryQuota>>>::_Vector_impl" = type { %"struct.std::_Vector_base<std::shared_ptr<grpc_core::BasicMemoryQuota>, std::allocator<std::shared_ptr<grpc_core::BasicMemoryQuota>>>::_Vector_impl_data" }
%"struct.std::_Vector_base<std::shared_ptr<grpc_core::BasicMemoryQuota>, std::allocator<std::shared_ptr<grpc_core::BasicMemoryQuota>>>::_Vector_impl_data" = type { ptr, ptr, ptr }
%"class.grpc_core::(anonymous namespace)::MemoryQuotaTracker" = type { %"class.absl::lts_20230802::Mutex", %"class.std::vector" }
%"class.std::vector" = type { %"struct.std::_Vector_base" }
%"struct.std::_Vector_base" = type { %"struct.std::_Vector_base<std::weak_ptr<grpc_core::BasicMemoryQuota>, std::allocator<std::weak_ptr<grpc_core::BasicMemoryQuota>>>::_Vector_impl" }
%"struct.std::_Vector_base<std::weak_ptr<grpc_core::BasicMemoryQuota>, std::allocator<std::weak_ptr<grpc_core::BasicMemoryQuota>>>::_Vector_impl" = type { %"struct.std::_Vector_base<std::weak_ptr<grpc_core::BasicMemoryQuota>, std::allocator<std::weak_ptr<grpc_core::BasicMemoryQuota>>>::_Vector_impl_data" }
%"struct.std::_Vector_base<std::weak_ptr<grpc_core::BasicMemoryQuota>, std::allocator<std::weak_ptr<grpc_core::BasicMemoryQuota>>>::_Vector_impl_data" = type { ptr, ptr, ptr }

@_ZZN9grpc_core12_GLOBAL__N_118MemoryQuotaTracker3GetEvE7tracker = internal global ptr null, align 8
@_ZGVZN9grpc_core12_GLOBAL__N_118MemoryQuotaTracker3GetEvE7tracker = internal global i64 0, align 8

; Function Attrs: mustprogress nounwind uwtable
define linkonce_odr void @_ZNSt15__new_allocatorISt8weak_ptrIN9grpc_core16BasicMemoryQuotaEEEC2Ev(ptr noundef nonnull align 1 dereferenceable(1) %this) unnamed_addr #4 comdat align 2 {
entry:
  %this.addr = alloca ptr, align 8
  store ptr %this, ptr %this.addr, align 8
  ret void
}

; Function Attrs: mustprogress nounwind uwtable
define linkonce_odr void @_ZNSt12_Vector_baseISt8weak_ptrIN9grpc_core16BasicMemoryQuotaEESaIS3_EE17_Vector_impl_dataC2Ev(ptr noundef nonnull align 8 dereferenceable(24) %this) unnamed_addr #4 comdat align 2 {
entry:
  %this.addr = alloca ptr, align 8
  store ptr %this, ptr %this.addr, align 8
  %this1 = load ptr, ptr %this.addr, align 8
  %_M_start = getelementptr inbounds %"struct.std::_Vector_base<std::weak_ptr<grpc_core::BasicMemoryQuota>, std::allocator<std::weak_ptr<grpc_core::BasicMemoryQuota>>>::_Vector_impl_data", ptr %this1, i32 0, i32 0
  store ptr null, ptr %_M_start, align 8
  %_M_finish = getelementptr inbounds %"struct.std::_Vector_base<std::weak_ptr<grpc_core::BasicMemoryQuota>, std::allocator<std::weak_ptr<grpc_core::BasicMemoryQuota>>>::_Vector_impl_data", ptr %this1, i32 0, i32 1
  store ptr null, ptr %_M_finish, align 8
  %_M_end_of_storage = getelementptr inbounds %"struct.std::_Vector_base<std::weak_ptr<grpc_core::BasicMemoryQuota>, std::allocator<std::weak_ptr<grpc_core::BasicMemoryQuota>>>::_Vector_impl_data", ptr %this1, i32 0, i32 2
  store ptr null, ptr %_M_end_of_storage, align 8
  ret void
}

; Function Attrs: mustprogress nounwind uwtable
define linkonce_odr void @_ZNSaISt8weak_ptrIN9grpc_core16BasicMemoryQuotaEEEC2Ev(ptr noundef nonnull align 1 dereferenceable(1) %this) unnamed_addr #4 comdat align 2 {
entry:
  %this.addr = alloca ptr, align 8
  store ptr %this, ptr %this.addr, align 8
  %this1 = load ptr, ptr %this.addr, align 8
  call void @_ZNSt15__new_allocatorISt8weak_ptrIN9grpc_core16BasicMemoryQuotaEEEC2Ev(ptr noundef nonnull align 1 dereferenceable(1) %this1) #3
  ret void
}

; Function Attrs: mustprogress nounwind uwtable
define linkonce_odr void @_ZNSt12_Vector_baseISt8weak_ptrIN9grpc_core16BasicMemoryQuotaEESaIS3_EE12_Vector_implC2Ev(ptr noundef nonnull align 8 dereferenceable(24) %this) unnamed_addr #4 comdat align 2 {
entry:
  %this.addr = alloca ptr, align 8
  store ptr %this, ptr %this.addr, align 8
  %this1 = load ptr, ptr %this.addr, align 8
  call void @_ZNSaISt8weak_ptrIN9grpc_core16BasicMemoryQuotaEEEC2Ev(ptr noundef nonnull align 1 dereferenceable(1) %this1) #3
  call void @_ZNSt12_Vector_baseISt8weak_ptrIN9grpc_core16BasicMemoryQuotaEESaIS3_EE17_Vector_impl_dataC2Ev(ptr noundef nonnull align 8 dereferenceable(24) %this1) #3
  ret void
}

; Function Attrs: mustprogress nounwind uwtable
define linkonce_odr void @_ZNSt13__atomic_baseIlEC2El(ptr noundef nonnull align 8 dereferenceable(8) %this, i64 noundef %__i) unnamed_addr #4 comdat align 2 {
entry:
  %this.addr = alloca ptr, align 8
  %__i.addr = alloca i64, align 8
  store ptr %this, ptr %this.addr, align 8
  store i64 %__i, ptr %__i.addr, align 8
  %this1 = load ptr, ptr %this.addr, align 8
  %_M_i = getelementptr inbounds %"struct.std::__atomic_base", ptr %this1, i32 0, i32 0
  %0 = load i64, ptr %__i.addr, align 8
  store i64 %0, ptr %_M_i, align 8
  ret void
}

; Function Attrs: mustprogress nounwind uwtable
define linkonce_odr void @_ZNSt12_Vector_baseISt8weak_ptrIN9grpc_core16BasicMemoryQuotaEESaIS3_EEC2Ev(ptr noundef nonnull align 8 dereferenceable(24) %this) unnamed_addr #4 comdat align 2 {
entry:
  %this.addr = alloca ptr, align 8
  store ptr %this, ptr %this.addr, align 8
  %this1 = load ptr, ptr %this.addr, align 8
  %_M_impl = getelementptr inbounds %"struct.std::_Vector_base", ptr %this1, i32 0, i32 0
  call void @_ZNSt12_Vector_baseISt8weak_ptrIN9grpc_core16BasicMemoryQuotaEESaIS3_EE12_Vector_implC2Ev(ptr noundef nonnull align 8 dereferenceable(24) %_M_impl) #3
  ret void
}

; Function Attrs: mustprogress nounwind uwtable
define linkonce_odr void @_ZNSt6atomicIlEC2El(ptr noundef nonnull align 8 dereferenceable(8) %this, i64 noundef %__i) unnamed_addr #4 comdat align 2 {
entry:
  %this.addr = alloca ptr, align 8
  %__i.addr = alloca i64, align 8
  store ptr %this, ptr %this.addr, align 8
  store i64 %__i, ptr %__i.addr, align 8
  %this1 = load ptr, ptr %this.addr, align 8
  %0 = load i64, ptr %__i.addr, align 8
  call void @_ZNSt13__atomic_baseIlEC2El(ptr noundef nonnull align 8 dereferenceable(8) %this1, i64 noundef %0) #3
  ret void
}

; Function Attrs: mustprogress nounwind uwtable
define linkonce_odr void @_ZNSt6vectorISt8weak_ptrIN9grpc_core16BasicMemoryQuotaEESaIS3_EEC2Ev(ptr noundef nonnull align 8 dereferenceable(24) %this) unnamed_addr #4 comdat align 2 {
entry:
  %this.addr = alloca ptr, align 8
  store ptr %this, ptr %this.addr, align 8
  %this1 = load ptr, ptr %this.addr, align 8
  call void @_ZNSt12_Vector_baseISt8weak_ptrIN9grpc_core16BasicMemoryQuotaEESaIS3_EEC2Ev(ptr noundef nonnull align 8 dereferenceable(24) %this1) #3
  ret void
}

; Function Attrs: mustprogress nounwind uwtable
define linkonce_odr void @_ZN4absl12lts_202308025MutexC2Ev(ptr noundef nonnull align 8 dereferenceable(8) %this) unnamed_addr #4 comdat align 2 {
entry:
  %this.addr = alloca ptr, align 8
  store ptr %this, ptr %this.addr, align 8
  %this1 = load ptr, ptr %this.addr, align 8
  %mu_ = getelementptr inbounds %"class.absl::lts_20230802::Mutex", ptr %this1, i32 0, i32 0
  call void @_ZNSt6atomicIlEC2El(ptr noundef nonnull align 8 dereferenceable(8) %mu_, i64 noundef 0) #3
  ret void
}

; Function Attrs: mustprogress nounwind uwtable
define linkonce_odr void @_ZN4absl12lts_202308029MutexLockD2Ev(ptr noundef nonnull align 8 dereferenceable(8) %this) unnamed_addr #4 comdat align 2 personality ptr @__gxx_personality_v0 {
entry:
  %this.addr = alloca ptr, align 8
  store ptr %this, ptr %this.addr, align 8
  %this1 = load ptr, ptr %this.addr, align 8
  %mu_ = getelementptr inbounds %"class.absl::lts_20230802::MutexLock", ptr %this1, i32 0, i32 0
  %0 = load ptr, ptr %mu_, align 8
  invoke void @_ZN4absl12lts_202308025Mutex6UnlockEv(ptr noundef nonnull align 8 dereferenceable(8) %0)
          to label %invoke.cont unwind label %terminate.lpad

invoke.cont:                                      ; preds = %entry
  ret void

terminate.lpad:                                   ; preds = %entry
  %1 = landingpad { ptr, i32 }
          catch ptr null
  %2 = extractvalue { ptr, i32 } %1, 0
  call void @__clang_call_terminate(ptr %2) #22
  unreachable
}

; Function Attrs: mustprogress uwtable
define linkonce_odr void @_ZN4absl12lts_202308029MutexLockC2EPNS0_5MutexE(ptr noundef nonnull align 8 dereferenceable(8) %this, ptr noundef %mu) unnamed_addr #5 comdat align 2 {
entry:
  %this.addr = alloca ptr, align 8
  %mu.addr = alloca ptr, align 8
  store ptr %this, ptr %this.addr, align 8
  store ptr %mu, ptr %mu.addr, align 8
  %this1 = load ptr, ptr %this.addr, align 8
  %mu_ = getelementptr inbounds %"class.absl::lts_20230802::MutexLock", ptr %this1, i32 0, i32 0
  %0 = load ptr, ptr %mu.addr, align 8
  store ptr %0, ptr %mu_, align 8
  %mu_2 = getelementptr inbounds %"class.absl::lts_20230802::MutexLock", ptr %this1, i32 0, i32 0
  %1 = load ptr, ptr %mu_2, align 8
  call void @_ZN4absl12lts_202308025Mutex4LockEv(ptr noundef nonnull align 8 dereferenceable(8) %1)
  ret void
}

; Function Attrs: mustprogress uwtable
define internal void @_ZN9grpc_core12_GLOBAL__N_118MemoryQuotaTrackerC2Ev(ptr noundef nonnull align 8 dereferenceable(32) %this) unnamed_addr #5 align 2 {
entry:
  %this.addr = alloca ptr, align 8
  store ptr %this, ptr %this.addr, align 8
  %this1 = load ptr, ptr %this.addr, align 8
  %mu_ = getelementptr inbounds %"class.grpc_core::(anonymous namespace)::MemoryQuotaTracker", ptr %this1, i32 0, i32 0
  call void @_ZN4absl12lts_202308025MutexC2Ev(ptr noundef nonnull align 8 dereferenceable(8) %mu_)
  %quotas_ = getelementptr inbounds %"class.grpc_core::(anonymous namespace)::MemoryQuotaTracker", ptr %this1, i32 0, i32 1
  call void @_ZNSt6vectorISt8weak_ptrIN9grpc_core16BasicMemoryQuotaEESaIS3_EEC2Ev(ptr noundef nonnull align 8 dereferenceable(24) %quotas_) #3
  ret void
}

; Function Attrs: mustprogress uwtable
define internal void @_ZN9grpc_core12_GLOBAL__N_118MemoryQuotaTracker3AllEv(ptr noalias sret(%"class.std::vector.82") align 8 %agg.result, ptr noundef nonnull align 8 dereferenceable(32) %this) #5 align 2 personality ptr @__gxx_personality_v0 {
entry:
  %result.ptr = alloca ptr, align 8
  %this.addr = alloca ptr, align 8
  %lock = alloca %"class.absl::lts_20230802::MutexLock", align 8
  %exn.slot = alloca ptr, align 8
  %ehselector.slot = alloca i32, align 4
  store ptr %agg.result, ptr %result.ptr, align 8
  store ptr %this, ptr %this.addr, align 8
  %this1 = load ptr, ptr %this.addr, align 8
  %mu_ = getelementptr inbounds %"class.grpc_core::(anonymous namespace)::MemoryQuotaTracker", ptr %this1, i32 0, i32 0
  call void @_ZN4absl12lts_202308029MutexLockC2EPNS0_5MutexE(ptr noundef nonnull align 8 dereferenceable(8) %lock, ptr noundef %mu_)
  invoke void @_ZN9grpc_core12_GLOBAL__N_118MemoryQuotaTracker23GatherAndGarbageCollectEv(ptr sret(%"class.std::vector.82") align 8 %agg.result, ptr noundef nonnull align 8 dereferenceable(32) %this1)
          to label %invoke.cont unwind label %lpad

invoke.cont:                                      ; preds = %entry
  call void @_ZN4absl12lts_202308029MutexLockD2Ev(ptr noundef nonnull align 8 dereferenceable(8) %lock) #3
  ret void

lpad:                                             ; preds = %entry
  %0 = landingpad { ptr, i32 }
          cleanup
  %1 = extractvalue { ptr, i32 } %0, 0
  store ptr %1, ptr %exn.slot, align 8
  %2 = extractvalue { ptr, i32 } %0, 1
  store i32 %2, ptr %ehselector.slot, align 4
  call void @_ZN4absl12lts_202308029MutexLockD2Ev(ptr noundef nonnull align 8 dereferenceable(8) %lock) #3
  br label %eh.resume

eh.resume:                                        ; preds = %lpad
  %exn = load ptr, ptr %exn.slot, align 8
  %sel = load i32, ptr %ehselector.slot, align 4
  %lpad.val = insertvalue { ptr, i32 } poison, ptr %exn, 0
  %lpad.val2 = insertvalue { ptr, i32 } %lpad.val, i32 %sel, 1
  resume { ptr, i32 } %lpad.val2
}

; Function Attrs: mustprogress uwtable
define internal noundef nonnull align 8 dereferenceable(32) ptr @_ZN9grpc_core12_GLOBAL__N_118MemoryQuotaTracker3GetEv() #5 align 2 personality ptr @__gxx_personality_v0 {
entry:
  %exn.slot = alloca ptr, align 8
  %ehselector.slot = alloca i32, align 4
  %0 = load atomic i8, ptr @_ZGVZN9grpc_core12_GLOBAL__N_118MemoryQuotaTracker3GetEvE7tracker acquire, align 8
  %guard.uninitialized = icmp eq i8 %0, 0
  br i1 %guard.uninitialized, label %init.check, label %init.end, !prof !11

init.check:                                       ; preds = %entry
  %1 = call i32 @__cxa_guard_acquire(ptr @_ZGVZN9grpc_core12_GLOBAL__N_118MemoryQuotaTracker3GetEvE7tracker) #3
  %tobool = icmp ne i32 %1, 0
  br i1 %tobool, label %init, label %init.end

init:                                             ; preds = %init.check
  %call = invoke noalias noundef nonnull ptr @_Znwm(i64 noundef 32) #23
          to label %invoke.cont unwind label %lpad

invoke.cont:                                      ; preds = %init
  invoke void @_ZN9grpc_core12_GLOBAL__N_118MemoryQuotaTrackerC2Ev(ptr noundef nonnull align 8 dereferenceable(32) %call)
          to label %invoke.cont2 unwind label %lpad1

invoke.cont2:                                     ; preds = %invoke.cont
  store ptr %call, ptr @_ZZN9grpc_core12_GLOBAL__N_118MemoryQuotaTracker3GetEvE7tracker, align 8
  call void @__cxa_guard_release(ptr @_ZGVZN9grpc_core12_GLOBAL__N_118MemoryQuotaTracker3GetEvE7tracker) #3
  br label %init.end

init.end:                                         ; preds = %invoke.cont2, %init.check, %entry
  %2 = load ptr, ptr @_ZZN9grpc_core12_GLOBAL__N_118MemoryQuotaTracker3GetEvE7tracker, align 8
  ret ptr %2

lpad:                                             ; preds = %init
  %3 = landingpad { ptr, i32 }
          cleanup
  %4 = extractvalue { ptr, i32 } %3, 0
  store ptr %4, ptr %exn.slot, align 8
  %5 = extractvalue { ptr, i32 } %3, 1
  store i32 %5, ptr %ehselector.slot, align 4
  br label %ehcleanup

lpad1:                                            ; preds = %invoke.cont
  %6 = landingpad { ptr, i32 }
          cleanup
  %7 = extractvalue { ptr, i32 } %6, 0
  store ptr %7, ptr %exn.slot, align 8
  %8 = extractvalue { ptr, i32 } %6, 1
  store i32 %8, ptr %ehselector.slot, align 4
  call void @_ZdlPv(ptr noundef %call) #24
  br label %ehcleanup

ehcleanup:                                        ; preds = %lpad1, %lpad
  call void @__cxa_guard_abort(ptr @_ZGVZN9grpc_core12_GLOBAL__N_118MemoryQuotaTracker3GetEvE7tracker) #3
  br label %eh.resume

eh.resume:                                        ; preds = %ehcleanup
  %exn = load ptr, ptr %exn.slot, align 8
  %sel = load i32, ptr %ehselector.slot, align 4
  %lpad.val = insertvalue { ptr, i32 } poison, ptr %exn, 0
  %lpad.val3 = insertvalue { ptr, i32 } %lpad.val, i32 %sel, 1
  resume { ptr, i32 } %lpad.val3
}

; Function Attrs: mustprogress uwtable
define void @_ZN9grpc_core15AllMemoryQuotasEv(ptr noalias sret(%"class.std::vector.82") align 8 %agg.result) #5 {
entry:
  %result.ptr = alloca ptr, align 8
  store ptr %agg.result, ptr %result.ptr, align 8
  %call = call noundef nonnull align 8 dereferenceable(32) ptr @_ZN9grpc_core12_GLOBAL__N_118MemoryQuotaTracker3GetEv()
  call void @_ZN9grpc_core12_GLOBAL__N_118MemoryQuotaTracker3AllEv(ptr sret(%"class.std::vector.82") align 8 %agg.result, ptr noundef nonnull align 8 dereferenceable(32) %call)
  ret void
}