; Function Attrs: mustprogress uwtable
define void @_ZN9grpc_core15AllMemoryQuotasEv(ptr noalias sret(%"class.std::vector.82") align 8 %agg.result) local_unnamed_addr #4 personality ptr @__gxx_personality_v0 {
entry:
  %0 = load atomic i8, ptr @_ZGVZN9grpc_core12_GLOBAL__N_118MemoryQuotaTracker3GetEvE7tracker acquire, align 8
  %guard.uninitialized.i = icmp eq i8 %0, 0
  br i1 %guard.uninitialized.i, label %init.check.i, label %_ZN9grpc_core12_GLOBAL__N_118MemoryQuotaTracker3GetEv.exit, !prof !50

init.check.i:                                     ; preds = %entry
  %1 = tail call i32 @__cxa_guard_acquire(ptr nonnull @_ZGVZN9grpc_core12_GLOBAL__N_118MemoryQuotaTracker3GetEvE7tracker) #25
  %tobool.not.i = icmp eq i32 %1, 0
  br i1 %tobool.not.i, label %_ZN9grpc_core12_GLOBAL__N_118MemoryQuotaTracker3GetEv.exit, label %init.i

init.i:                                           ; preds = %init.check.i
  %call.i = invoke noalias noundef nonnull dereferenceable(32) ptr @_Znwm(i64 noundef 32) #27
          to label %invoke.cont2.i unwind label %lpad.i

invoke.cont2.i:                                   ; preds = %init.i
  tail call void @llvm.memset.p0.i64(ptr noundef nonnull align 8 dereferenceable(32) %call.i, i8 0, i64 32, i1 false)
  store ptr %call.i, ptr @_ZZN9grpc_core12_GLOBAL__N_118MemoryQuotaTracker3GetEvE7tracker, align 8
  tail call void @__cxa_guard_release(ptr nonnull @_ZGVZN9grpc_core12_GLOBAL__N_118MemoryQuotaTracker3GetEvE7tracker) #25
  br label %_ZN9grpc_core12_GLOBAL__N_118MemoryQuotaTracker3GetEv.exit

common.resume:                                    ; preds = %lpad.i1, %lpad.i
  %common.resume.op = phi { ptr, i32 } [ %2, %lpad.i ], [ %6, %lpad.i1 ]
  resume { ptr, i32 } %common.resume.op

lpad.i:                                           ; preds = %init.i
  %2 = landingpad { ptr, i32 }
          cleanup
  tail call void @__cxa_guard_abort(ptr nonnull @_ZGVZN9grpc_core12_GLOBAL__N_118MemoryQuotaTracker3GetEvE7tracker) #25
  br label %common.resume

_ZN9grpc_core12_GLOBAL__N_118MemoryQuotaTracker3GetEv.exit: ; preds = %entry, %init.check.i, %invoke.cont2.i
  %3 = load ptr, ptr @_ZZN9grpc_core12_GLOBAL__N_118MemoryQuotaTracker3GetEvE7tracker, align 8
  tail call void @_ZN4absl12lts_202308025Mutex4LockEv(ptr noundef nonnull align 8 dereferenceable(8) %3), !noalias !93
  invoke fastcc void @_ZN9grpc_core12_GLOBAL__N_118MemoryQuotaTracker23GatherAndGarbageCollectEv(ptr noalias align 8 %agg.result, ptr noundef nonnull align 8 dereferenceable(32) %3)
          to label %invoke.cont.i unwind label %lpad.i1

invoke.cont.i:                                    ; preds = %_ZN9grpc_core12_GLOBAL__N_118MemoryQuotaTracker3GetEv.exit
  invoke void @_ZN4absl12lts_202308025Mutex6UnlockEv(ptr noundef nonnull align 8 dereferenceable(8) %3)
          to label %_ZN9grpc_core12_GLOBAL__N_118MemoryQuotaTracker3AllEv.exit unwind label %terminate.lpad.i.i

terminate.lpad.i.i:                               ; preds = %invoke.cont.i
  %4 = landingpad { ptr, i32 }
          catch ptr null
  %5 = extractvalue { ptr, i32 } %4, 0
  tail call void @__clang_call_terminate(ptr %5) #26
  unreachable

lpad.i1:                                          ; preds = %_ZN9grpc_core12_GLOBAL__N_118MemoryQuotaTracker3GetEv.exit
  %6 = landingpad { ptr, i32 }
          cleanup
  invoke void @_ZN4absl12lts_202308025Mutex6UnlockEv(ptr noundef nonnull align 8 dereferenceable(8) %3)
          to label %common.resume unwind label %terminate.lpad.i1.i

terminate.lpad.i1.i:                              ; preds = %lpad.i1
  %7 = landingpad { ptr, i32 }
          catch ptr null
  %8 = extractvalue { ptr, i32 } %7, 0
  tail call void @__clang_call_terminate(ptr %8) #26
  unreachable

_ZN9grpc_core12_GLOBAL__N_118MemoryQuotaTracker3AllEv.exit: ; preds = %invoke.cont.i
  ret void
}